target datalayout = "e-m:e-p270:32:32-p271:32:32-p272:64:64-i64:64-i128:128-f80:128-n8:16:32:64-S128"
target triple = "x86_64-pc-linux-gnu"

%struct._zend_executor_globals = type { %struct._zval_struct, %struct._zval_struct, [32 x ptr], ptr, ptr, %struct._zend_array, %struct._zend_array, ptr, i32, i32, ptr, ptr, ptr, ptr, ptr, ptr, i64, ptr, ptr, i32, i32, i64, i32, i32, i32, i8, i8, %struct.zend_atomic_bool_s, %struct.zend_atomic_bool_s, ptr, i64, ptr, ptr, %struct._zend_array, %struct._zend_array, i32, i8, %struct._zval_struct, %struct._zval_struct, %struct._zend_stack, %struct._zend_stack, %struct._zend_stack, ptr, i32, i32, i64, ptr, ptr, ptr, %struct._zend_objects_store, ptr, ptr, ptr, [3 x %struct._zend_op], ptr, i8, i8, i64, i32, i32, ptr, [16 x %struct._HashTableIterator], ptr, %union._zend_function, %struct._zend_op, %struct._zend_array, i64, %struct.zend_get_gc_buffer, ptr, ptr, ptr, i64, i8, i32, ptr, ptr, i64, %struct._zend_call_stack, i64, i64, [6 x ptr] }
%struct.zend_atomic_bool_s = type { i8 }
%struct._zval_struct = type { %union._zend_value, %union.anon, %union.anon.2 }
%union._zend_value = type { i64 }
%union.anon = type { i32 }
%union.anon.2 = type { i32 }
%struct._zend_stack = type { i32, i32, i32, ptr }
%struct._zend_objects_store = type { ptr, i32, i32, i32 }
%struct._HashTableIterator = type { ptr, i32, i32 }
%union._zend_function = type { %struct._zend_op_array }
%struct._zend_op_array = type { i8, [3 x i8], i32, ptr, ptr, ptr, i32, i32, ptr, ptr, ptr, ptr, i32, i32, i32, i32, ptr, ptr, ptr, ptr, ptr, i32, i32, ptr, ptr, ptr, i32, i32, i32, i32, ptr, ptr, [6 x ptr] }
%struct._zend_op = type { ptr, %union._znode_op, %union._znode_op, %union._znode_op, i32, i32, i8, i8, i8, i8 }
%union._znode_op = type { i32 }
%struct._zend_array = type { %struct._zend_refcounted_h, %union.anon.5, i32, %union.anon.7, i32, i32, i32, i32, i64, ptr }
%struct._zend_refcounted_h = type { i32, %union.anon.3 }
%union.anon.3 = type { i32 }
%union.anon.5 = type { i32 }
%union.anon.7 = type { ptr }
%struct.zend_get_gc_buffer = type { ptr, ptr, ptr }
%struct._zend_call_stack = type { ptr, i64 }
%struct._zend_execute_data = type { ptr, ptr, ptr, ptr, %struct._zval_struct, ptr, ptr, ptr, ptr }
%struct._zend_object = type { %struct._zend_refcounted_h, i32, ptr, ptr, ptr, [1 x %struct._zval_struct] }
%struct._zend_refcounted = type { %struct._zend_refcounted_h }
%struct._php_random_algo_with_state = type { ptr, ptr }
%struct._php_random_randomizer = type { %struct._php_random_algo_with_state, i8, %struct._zend_object }

@executor_globals = external global %struct._zend_executor_globals, align 8

; Function Attrs: nounwind uwtable
define internal ptr @php_random_randomizer_from_obj(ptr noundef %0) #0 {
  %2 = alloca ptr, align 8
  store ptr %0, ptr %2, align 8
  %3 = load ptr, ptr %2, align 8
  %4 = getelementptr inbounds i8, ptr %3, i64 -24
  ret ptr %4
}

; Function Attrs: nounwind uwtable
define hidden void @zim_Random_Randomizer_shuffleArray(ptr noundef %0, ptr noundef %1) #0 {
  %3 = alloca ptr, align 8
  %4 = alloca ptr, align 8
  %5 = alloca ptr, align 8
  %6 = alloca i1, align 1
  %7 = alloca ptr, align 8
  %8 = alloca ptr, align 8
  %9 = alloca i8, align 1
  %10 = alloca i8, align 1
  %11 = alloca ptr, align 8
  %12 = alloca ptr, align 8
  %13 = alloca ptr, align 8
  %14 = alloca ptr, align 8
  %15 = alloca ptr, align 8
  %16 = alloca i32, align 4
  %17 = alloca i32, align 4
  %18 = alloca i32, align 4
  %19 = alloca i32, align 4
  %20 = alloca i32, align 4
  %21 = alloca ptr, align 8
  %22 = alloca ptr, align 8
  %23 = alloca i32, align 4
  %24 = alloca ptr, align 8
  %25 = alloca i8, align 1
  %26 = alloca i8, align 1
  %27 = alloca i32, align 4
  %28 = alloca ptr, align 8
  %29 = alloca ptr, align 8
  %30 = alloca ptr, align 8
  %31 = alloca i32, align 4
  %32 = alloca ptr, align 8
  %33 = alloca ptr, align 8
  store ptr %0, ptr %12, align 8
  store ptr %1, ptr %13, align 8
  %34 = load ptr, ptr %12, align 8
  %35 = getelementptr inbounds %struct._zend_execute_data, ptr %34, i32 0, i32 4
  %36 = getelementptr inbounds %struct._zval_struct, ptr %35, i32 0, i32 0
  %37 = load ptr, ptr %36, align 8
  %38 = call ptr @php_random_randomizer_from_obj(ptr noundef %37)
  store ptr %38, ptr %14, align 8
  br label %39

39:                                               ; preds = %2
  store i32 0, ptr %16, align 4
  store i32 1, ptr %17, align 4
  store i32 1, ptr %18, align 4
  %40 = load ptr, ptr %12, align 8
  %41 = getelementptr inbounds %struct._zend_execute_data, ptr %40, i32 0, i32 4
  %42 = getelementptr inbounds %struct._zval_struct, ptr %41, i32 0, i32 2
  %43 = load i32, ptr %42, align 4
  store i32 %43, ptr %19, align 4
  store i32 0, ptr %20, align 4
  store ptr null, ptr %22, align 8
  store i32 0, ptr %23, align 4
  store ptr null, ptr %24, align 8
  store i8 0, ptr %25, align 1
  store i8 0, ptr %26, align 1
  store i32 0, ptr %27, align 4
  br label %44

44:                                               ; preds = %39
  %45 = load i32, ptr %19, align 4
  %46 = load i32, ptr %17, align 4
  %47 = icmp ult i32 %45, %46
  %48 = xor i1 %47, true
  %49 = xor i1 %48, true
  %50 = zext i1 %49 to i32
  %51 = sext i32 %50 to i64
  %52 = icmp ne i64 %51, 0
  br i1 %52, label %62, label %53

53:                                               ; preds = %44
  %54 = load i32, ptr %19, align 4
  %55 = load i32, ptr %18, align 4
  %56 = icmp ugt i32 %54, %55
  %57 = xor i1 %56, true
  %58 = xor i1 %57, true
  %59 = zext i1 %58 to i32
  %60 = sext i32 %59 to i64
  %61 = icmp ne i64 %60, 0
  br i1 %61, label %62, label %65

62:                                               ; preds = %53, %44
  %63 = load i32, ptr %17, align 4
  %64 = load i32, ptr %18, align 4
  call void @zend_wrong_parameters_count_error(i32 noundef %63, i32 noundef %64)
  store i32 1, ptr %27, align 4
  br label %159

65:                                               ; preds = %53
  %66 = load ptr, ptr %12, align 8
  %67 = getelementptr inbounds %struct._zval_struct, ptr %66, i64 4
  store ptr %67, ptr %21, align 8
  %68 = load i32, ptr %20, align 4
  %69 = add i32 %68, 1
  store i32 %69, ptr %20, align 4
  %70 = load i32, ptr %20, align 4
  %71 = load i32, ptr %17, align 4
  %72 = icmp ule i32 %70, %71
  br i1 %72, label %78, label %73

73:                                               ; preds = %65
  %74 = load i8, ptr %26, align 1
  %75 = trunc i8 %74 to i1
  %76 = zext i1 %75 to i32
  %77 = icmp eq i32 %76, 1
  br label %78

78:                                               ; preds = %73, %65
  %79 = phi i1 [ true, %65 ], [ %77, %73 ]
  call void @llvm.assume(i1 %79)
  %80 = load i32, ptr %20, align 4
  %81 = load i32, ptr %17, align 4
  %82 = icmp ugt i32 %80, %81
  br i1 %82, label %88, label %83

83:                                               ; preds = %78
  %84 = load i8, ptr %26, align 1
  %85 = trunc i8 %84 to i1
  %86 = zext i1 %85 to i32
  %87 = icmp eq i32 %86, 0
  br label %88

88:                                               ; preds = %83, %78
  %89 = phi i1 [ true, %78 ], [ %87, %83 ]
  call void @llvm.assume(i1 %89)
  %90 = load i8, ptr %26, align 1
  %91 = trunc i8 %90 to i1
  br i1 %91, label %92, label %103

92:                                               ; preds = %88
  %93 = load i32, ptr %20, align 4
  %94 = load i32, ptr %19, align 4
  %95 = icmp ugt i32 %93, %94
  %96 = xor i1 %95, true
  %97 = xor i1 %96, true
  %98 = zext i1 %97 to i32
  %99 = sext i32 %98 to i64
  %100 = icmp ne i64 %99, 0
  br i1 %100, label %101, label %102

101:                                              ; preds = %92
  br label %159

102:                                              ; preds = %92
  br label %103

103:                                              ; preds = %102, %88
  %104 = load ptr, ptr %21, align 8
  %105 = getelementptr inbounds %struct._zval_struct, ptr %104, i32 1
  store ptr %105, ptr %21, align 8
  %106 = load ptr, ptr %21, align 8
  store ptr %106, ptr %22, align 8
  %107 = load ptr, ptr %22, align 8
  store ptr %107, ptr %7, align 8
  store ptr %15, ptr %8, align 8
  store i8 0, ptr %9, align 1
  store i8 0, ptr %10, align 1
  %108 = load ptr, ptr %7, align 8
  store ptr %108, ptr %3, align 8
  %109 = load ptr, ptr %3, align 8
  %110 = getelementptr inbounds %struct._zval_struct, ptr %109, i32 0, i32 1
  %111 = load i8, ptr %110, align 8
  %112 = zext i8 %111 to i32
  %113 = icmp eq i32 %112, 7
  br i1 %113, label %124, label %114

114:                                              ; preds = %103
  %115 = load i8, ptr %10, align 1
  %116 = trunc i8 %115 to i1
  br i1 %116, label %117, label %127

117:                                              ; preds = %114
  %118 = load ptr, ptr %7, align 8
  store ptr %118, ptr %5, align 8
  %119 = load ptr, ptr %5, align 8
  %120 = getelementptr inbounds %struct._zval_struct, ptr %119, i32 0, i32 1
  %121 = load i8, ptr %120, align 8
  %122 = zext i8 %121 to i32
  %123 = icmp eq i32 %122, 8
  br i1 %123, label %124, label %127

124:                                              ; preds = %117, %103
  %125 = load ptr, ptr %7, align 8
  %126 = load ptr, ptr %8, align 8
  store ptr %125, ptr %126, align 8
  br label %140

127:                                              ; preds = %117, %114
  %128 = load i8, ptr %9, align 1
  %129 = trunc i8 %128 to i1
  br i1 %129, label %130, label %139

130:                                              ; preds = %127
  %131 = load ptr, ptr %7, align 8
  store ptr %131, ptr %4, align 8
  %132 = load ptr, ptr %4, align 8
  %133 = getelementptr inbounds %struct._zval_struct, ptr %132, i32 0, i32 1
  %134 = load i8, ptr %133, align 8
  %135 = zext i8 %134 to i32
  %136 = icmp eq i32 %135, 1
  br i1 %136, label %137, label %139

137:                                              ; preds = %130
  %138 = load ptr, ptr %8, align 8
  store ptr null, ptr %138, align 8
  br label %140

139:                                              ; preds = %130, %127
  store i1 false, ptr %6, align 1
  br label %141

140:                                              ; preds = %137, %124
  store i1 true, ptr %6, align 1
  br label %141

141:                                              ; preds = %140, %139
  %142 = load i1, ptr %6, align 1
  %143 = xor i1 %142, true
  %144 = xor i1 %143, true
  %145 = xor i1 %144, true
  %146 = zext i1 %145 to i32
  %147 = sext i32 %146 to i64
  %148 = icmp ne i64 %147, 0
  br i1 %148, label %149, label %150

149:                                              ; preds = %141
  store i32 6, ptr %23, align 4
  store i32 9, ptr %27, align 4
  br label %159

150:                                              ; preds = %141
  %151 = load i32, ptr %20, align 4
  %152 = load i32, ptr %18, align 4
  %153 = icmp eq i32 %151, %152
  br i1 %153, label %157, label %154

154:                                              ; preds = %150
  %155 = load i32, ptr %18, align 4
  %156 = icmp eq i32 %155, -1
  br label %157

157:                                              ; preds = %154, %150
  %158 = phi i1 [ true, %150 ], [ %156, %154 ]
  call void @llvm.assume(i1 %158)
  br label %159

159:                                              ; preds = %157, %149, %101, %62
  %160 = load i32, ptr %27, align 4
  %161 = icmp ne i32 %160, 0
  %162 = xor i1 %161, true
  %163 = xor i1 %162, true
  %164 = zext i1 %163 to i32
  %165 = sext i32 %164 to i64
  %166 = icmp ne i64 %165, 0
  br i1 %166, label %167, label %173

167:                                              ; preds = %159
  %168 = load i32, ptr %27, align 4
  %169 = load i32, ptr %20, align 4
  %170 = load ptr, ptr %24, align 8
  %171 = load i32, ptr %23, align 4
  %172 = load ptr, ptr %22, align 8
  call void @zend_wrong_parameter_error(i32 noundef %168, i32 noundef %169, ptr noundef %170, i32 noundef %171, ptr noundef %172)
  br label %232

173:                                              ; preds = %159
  br label %174

174:                                              ; preds = %173
  br label %175

175:                                              ; preds = %174
  %176 = load ptr, ptr %13, align 8
  store ptr %176, ptr %28, align 8
  %177 = load ptr, ptr %15, align 8
  store ptr %177, ptr %29, align 8
  %178 = load ptr, ptr %29, align 8
  %179 = getelementptr inbounds %struct._zval_struct, ptr %178, i32 0, i32 0
  %180 = load ptr, ptr %179, align 8
  store ptr %180, ptr %30, align 8
  %181 = load ptr, ptr %29, align 8
  %182 = getelementptr inbounds %struct._zval_struct, ptr %181, i32 0, i32 1
  %183 = load i32, ptr %182, align 8
  store i32 %183, ptr %31, align 4
  %184 = load i32, ptr %31, align 4
  %185 = and i32 %184, 255
  %186 = icmp eq i32 %185, 7
  br i1 %186, label %187, label %198

187:                                              ; preds = %175
  br label %188

188:                                              ; preds = %187
  %189 = load ptr, ptr %30, align 8
  %190 = call ptr @zend_array_dup(ptr noundef %189)
  store ptr %190, ptr %32, align 8
  %191 = load ptr, ptr %28, align 8
  store ptr %191, ptr %33, align 8
  %192 = load ptr, ptr %32, align 8
  %193 = load ptr, ptr %33, align 8
  %194 = getelementptr inbounds %struct._zval_struct, ptr %193, i32 0, i32 0
  store ptr %192, ptr %194, align 8
  %195 = load ptr, ptr %33, align 8
  %196 = getelementptr inbounds %struct._zval_struct, ptr %195, i32 0, i32 1
  store i32 775, ptr %196, align 8
  br label %197

197:                                              ; preds = %188
  br label %217

198:                                              ; preds = %175
  %199 = load i32, ptr %31, align 4
  %200 = and i32 %199, 65280
  %201 = icmp ne i32 %200, 0
  br i1 %201, label %202, label %208

202:                                              ; preds = %198
  %203 = load ptr, ptr %30, align 8
  %204 = getelementptr inbounds %struct._zend_refcounted, ptr %203, i32 0, i32 0
  store ptr %204, ptr %11, align 8
  %205 = load ptr, ptr %11, align 8
  %206 = load i32, ptr %205, align 4
  %207 = add i32 %206, 1
  store i32 %207, ptr %205, align 4
  br label %208

208:                                              ; preds = %202, %198
  br label %209

209:                                              ; preds = %208
  %210 = load ptr, ptr %30, align 8
  %211 = load ptr, ptr %28, align 8
  %212 = getelementptr inbounds %struct._zval_struct, ptr %211, i32 0, i32 0
  store ptr %210, ptr %212, align 8
  %213 = load i32, ptr %31, align 4
  %214 = load ptr, ptr %28, align 8
  %215 = getelementptr inbounds %struct._zval_struct, ptr %214, i32 0, i32 1
  store i32 %213, ptr %215, align 8
  br label %216

216:                                              ; preds = %209
  br label %217

217:                                              ; preds = %216, %197
  br label %218

218:                                              ; preds = %217
  %219 = load ptr, ptr %14, align 8
  %220 = getelementptr inbounds %struct._php_random_randomizer, ptr %219, i32 0, i32 0
  %221 = load ptr, ptr %13, align 8
  %222 = getelementptr inbounds { ptr, ptr }, ptr %220, i32 0, i32 0
  %223 = load ptr, ptr %222, align 8
  %224 = getelementptr inbounds { ptr, ptr }, ptr %220, i32 0, i32 1
  %225 = load ptr, ptr %224, align 8
  %226 = call zeroext i1 @php_array_data_shuffle(ptr %223, ptr %225, ptr noundef %221)
  br i1 %226, label %232, label %227

227:                                              ; preds = %218
  br label %228

228:                                              ; preds = %227
  %229 = load ptr, ptr getelementptr inbounds (%struct._zend_executor_globals, ptr @executor_globals, i32 0, i32 50), align 8
  %230 = icmp ne ptr %229, null
  call void @llvm.assume(i1 %230)
  br label %232

231:                                              ; No predecessors!
  br label %232

232:                                              ; preds = %231, %228, %218, %167
  ret void
}