; Function Attrs: nounwind uwtable
define hidden void @zim_Random_Randomizer_shuffleArray(ptr noundef %0, ptr noundef %1) local_unnamed_addr #0 {
  %3 = getelementptr inbounds i8, ptr %0, i64 32
  %4 = load ptr, ptr %3, align 8
  %5 = getelementptr inbounds i8, ptr %4, i64 -24
  %6 = getelementptr inbounds i8, ptr %0, i64 44
  %7 = load i32, ptr %6, align 4
  %cond = icmp eq i32 %7, 1
  br i1 %cond, label %9, label %8

8:                                                ; preds = %2
  tail call void @zend_wrong_parameters_count_error(i32 noundef 1, i32 noundef 1) #7
  br label %13

9:                                                ; preds = %2
  %10 = getelementptr inbounds i8, ptr %0, i64 80
  %11 = getelementptr inbounds i8, ptr %0, i64 88
  %12 = load i8, ptr %11, align 8
  %.not67 = icmp eq i8 %12, 7
  br i1 %.not67, label %14, label %13

13:                                               ; preds = %8, %9
  %.063.ph = phi i32 [ 9, %9 ], [ 1, %8 ]
  %.062.ph = phi i32 [ 6, %9 ], [ 0, %8 ]
  %.061.ph = phi ptr [ %10, %9 ], [ null, %8 ]
  %.060.ph = phi i32 [ 1, %9 ], [ 0, %8 ]
  tail call void @zend_wrong_parameter_error(i32 noundef %.063.ph, i32 noundef %.060.ph, ptr noundef null, i32 noundef %.062.ph, ptr noundef %.061.ph) #7
  br label %35

14:                                               ; preds = %9
  %15 = load ptr, ptr %10, align 8
  %16 = load i32, ptr %11, align 8
  %17 = and i32 %16, 255
  %18 = icmp eq i32 %17, 7
  br i1 %18, label %19, label %21

19:                                               ; preds = %14
  %20 = tail call ptr @zend_array_dup(ptr noundef %15) #7
  br label %26

21:                                               ; preds = %14
  %22 = and i32 %16, 65280
  %.not69 = icmp eq i32 %22, 0
  br i1 %.not69, label %26, label %23

23:                                               ; preds = %21
  %24 = load i32, ptr %15, align 4
  %25 = add i32 %24, 1
  store i32 %25, ptr %15, align 4
  br label %26

26:                                               ; preds = %23, %21, %19
  %.sink81 = phi ptr [ %20, %19 ], [ %15, %21 ], [ %15, %23 ]
  %.sink = phi i32 [ 775, %19 ], [ %16, %21 ], [ %16, %23 ]
  store ptr %.sink81, ptr %1, align 8
  %27 = getelementptr inbounds i8, ptr %1, i64 8
  store i32 %.sink, ptr %27, align 8
  %28 = load ptr, ptr %5, align 8
  %29 = getelementptr inbounds i8, ptr %4, i64 -16
  %30 = load ptr, ptr %29, align 8
  %31 = tail call zeroext i1 @php_array_data_shuffle(ptr %28, ptr %30, ptr noundef nonnull %1) #7
  br i1 %31, label %35, label %32

32:                                               ; preds = %26
  %33 = load ptr, ptr getelementptr inbounds (%struct._zend_executor_globals, ptr @executor_globals, i64 0, i32 50), align 8
  %34 = icmp ne ptr %33, null
  tail call void @llvm.assume(i1 %34)
  br label %35

35:                                               ; preds = %32, %26, %13
  ret void
}